target datalayout = "e-m:e-p270:32:32-p271:32:32-p272:64:64-i64:64-i128:128-f80:128-n8:16:32:64-S128"
target triple = "x86_64-pc-linux-gnu"

%struct.ML_KEM_VINFO = type { ptr, i64, i64, i64, i64, i64, i64, i64, i32, i32, i32, i32, i32, i32 }
%struct.ossl_ml_kem_key_st = type { ptr, ptr, ptr, ptr, ptr, ptr, ptr, ptr, ptr, ptr, ptr, ptr, ptr, i32, i32, [64 x i8], ptr }
%struct.ossl_ml_kem_scalar_st = type { [256 x i16] }

; Function Attrs: nounwind uwtable
define internal i32 @sample_scalar(ptr noundef %0, ptr noundef %1) #0 {
  %3 = alloca i32, align 4
  %4 = alloca ptr, align 8
  %5 = alloca ptr, align 8
  %6 = alloca ptr, align 8
  %7 = alloca ptr, align 8
  %8 = alloca [168 x i8], align 16
  %9 = alloca ptr, align 8
  %10 = alloca ptr, align 8
  %11 = alloca i16, align 2
  %12 = alloca i8, align 1
  %13 = alloca i8, align 1
  %14 = alloca i8, align 1
  %15 = alloca i32, align 4
  store ptr %0, ptr %4, align 8, !tbaa !40
  store ptr %1, ptr %5, align 8, !tbaa !44
  call void @llvm.lifetime.start.p0(i64 8, ptr %6) #8
  %16 = load ptr, ptr %4, align 8, !tbaa !40
  %17 = getelementptr inbounds nuw %struct.ossl_ml_kem_scalar_st, ptr %16, i32 0, i32 0
  %18 = getelementptr inbounds [256 x i16], ptr %17, i64 0, i64 0
  store ptr %18, ptr %6, align 8, !tbaa !53
  call void @llvm.lifetime.start.p0(i64 8, ptr %7) #8
  %19 = load ptr, ptr %6, align 8, !tbaa !53
  %20 = getelementptr inbounds i16, ptr %19, i64 256
  store ptr %20, ptr %7, align 8, !tbaa !53
  call void @llvm.lifetime.start.p0(i64 168, ptr %8) #8
  call void @llvm.lifetime.start.p0(i64 8, ptr %9) #8
  call void @llvm.lifetime.start.p0(i64 8, ptr %10) #8
  %21 = getelementptr inbounds [168 x i8], ptr %8, i64 0, i64 0
  %22 = getelementptr inbounds nuw i8, ptr %21, i64 168
  store ptr %22, ptr %10, align 8, !tbaa !25
  call void @llvm.lifetime.start.p0(i64 2, ptr %11) #8
  call void @llvm.lifetime.start.p0(i64 1, ptr %12) #8
  call void @llvm.lifetime.start.p0(i64 1, ptr %13) #8
  call void @llvm.lifetime.start.p0(i64 1, ptr %14) #8
  br label %23

23:                                               ; preds = %85, %2
  %24 = load ptr, ptr %5, align 8, !tbaa !44
  %25 = getelementptr inbounds [168 x i8], ptr %8, i64 0, i64 0
  store ptr %25, ptr %9, align 8, !tbaa !25
  %26 = call i32 @EVP_DigestSqueeze(ptr noundef %24, ptr noundef %25, i64 noundef 168)
  %27 = icmp ne i32 %26, 0
  br i1 %27, label %29, label %28

28:                                               ; preds = %23
  store i32 0, ptr %3, align 4
  store i32 1, ptr %15, align 4
  br label %90

29:                                               ; preds = %23
  br label %30

30:                                               ; preds = %80, %29
  %31 = load ptr, ptr %9, align 8, !tbaa !25
  %32 = getelementptr inbounds nuw i8, ptr %31, i32 1
  store ptr %32, ptr %9, align 8, !tbaa !25
  %33 = load i8, ptr %31, align 1, !tbaa !48
  store i8 %33, ptr %12, align 1, !tbaa !48
  %34 = load ptr, ptr %9, align 8, !tbaa !25
  %35 = getelementptr inbounds nuw i8, ptr %34, i32 1
  store ptr %35, ptr %9, align 8, !tbaa !25
  %36 = load i8, ptr %34, align 1, !tbaa !48
  store i8 %36, ptr %13, align 1, !tbaa !48
  %37 = load ptr, ptr %9, align 8, !tbaa !25
  %38 = getelementptr inbounds nuw i8, ptr %37, i32 1
  store ptr %38, ptr %9, align 8, !tbaa !25
  %39 = load i8, ptr %37, align 1, !tbaa !48
  store i8 %39, ptr %14, align 1, !tbaa !48
  %40 = load ptr, ptr %6, align 8, !tbaa !53
  %41 = load ptr, ptr %7, align 8, !tbaa !53
  %42 = icmp uge ptr %40, %41
  br i1 %42, label %43, label %44

43:                                               ; preds = %30
  br label %84

44:                                               ; preds = %30
  %45 = load i8, ptr %13, align 1, !tbaa !48
  %46 = zext i8 %45 to i32
  %47 = and i32 %46, 15
  %48 = shl i32 %47, 8
  %49 = load i8, ptr %12, align 1, !tbaa !48
  %50 = zext i8 %49 to i32
  %51 = add nsw i32 %48, %50
  %52 = trunc i32 %51 to i16
  store i16 %52, ptr %11, align 2, !tbaa !55
  %53 = zext i16 %52 to i32
  %54 = icmp slt i32 %53, 3329
  br i1 %54, label %55, label %59

55:                                               ; preds = %44
  %56 = load i16, ptr %11, align 2, !tbaa !55
  %57 = load ptr, ptr %6, align 8, !tbaa !53
  %58 = getelementptr inbounds nuw i16, ptr %57, i32 1
  store ptr %58, ptr %6, align 8, !tbaa !53
  store i16 %56, ptr %57, align 2, !tbaa !55
  br label %59

59:                                               ; preds = %55, %44
  %60 = load ptr, ptr %6, align 8, !tbaa !53
  %61 = load ptr, ptr %7, align 8, !tbaa !53
  %62 = icmp uge ptr %60, %61
  br i1 %62, label %63, label %64

63:                                               ; preds = %59
  br label %84

64:                                               ; preds = %59
  %65 = load i8, ptr %14, align 1, !tbaa !48
  %66 = zext i8 %65 to i32
  %67 = shl i32 %66, 4
  %68 = load i8, ptr %13, align 1, !tbaa !48
  %69 = zext i8 %68 to i32
  %70 = ashr i32 %69, 4
  %71 = add nsw i32 %67, %70
  %72 = trunc i32 %71 to i16
  store i16 %72, ptr %11, align 2, !tbaa !55
  %73 = zext i16 %72 to i32
  %74 = icmp slt i32 %73, 3329
  br i1 %74, label %75, label %79

75:                                               ; preds = %64
  %76 = load i16, ptr %11, align 2, !tbaa !55
  %77 = load ptr, ptr %6, align 8, !tbaa !53
  %78 = getelementptr inbounds nuw i16, ptr %77, i32 1
  store ptr %78, ptr %6, align 8, !tbaa !53
  store i16 %76, ptr %77, align 2, !tbaa !55
  br label %79

79:                                               ; preds = %75, %64
  br label %80

80:                                               ; preds = %79
  %81 = load ptr, ptr %9, align 8, !tbaa !25
  %82 = load ptr, ptr %10, align 8, !tbaa !25
  %83 = icmp ult ptr %81, %82
  br i1 %83, label %30, label %84, !llvm.loop !62

84:                                               ; preds = %80, %63, %43
  br label %85

85:                                               ; preds = %84
  %86 = load ptr, ptr %6, align 8, !tbaa !53
  %87 = load ptr, ptr %7, align 8, !tbaa !53
  %88 = icmp ult ptr %86, %87
  br i1 %88, label %23, label %89, !llvm.loop !63

89:                                               ; preds = %85
  store i32 1, ptr %3, align 4
  store i32 1, ptr %15, align 4
  br label %90

90:                                               ; preds = %89, %28
  call void @llvm.lifetime.end.p0(i64 1, ptr %14) #8
  call void @llvm.lifetime.end.p0(i64 1, ptr %13) #8
  call void @llvm.lifetime.end.p0(i64 1, ptr %12) #8
  call void @llvm.lifetime.end.p0(i64 2, ptr %11) #8
  call void @llvm.lifetime.end.p0(i64 8, ptr %10) #8
  call void @llvm.lifetime.end.p0(i64 8, ptr %9) #8
  call void @llvm.lifetime.end.p0(i64 168, ptr %8) #8
  call void @llvm.lifetime.end.p0(i64 8, ptr %7) #8
  call void @llvm.lifetime.end.p0(i64 8, ptr %6) #8
  %91 = load i32, ptr %3, align 4
  ret i32 %91
}

; Function Attrs: nounwind uwtable
define internal i32 @matrix_expand(ptr noundef %0, ptr noundef %1) #0 {
  %3 = alloca i32, align 4
  %4 = alloca ptr, align 8
  %5 = alloca ptr, align 8
  %6 = alloca ptr, align 8
  %7 = alloca [34 x i8], align 16
  %8 = alloca i32, align 4
  %9 = alloca i32, align 4
  %10 = alloca i32, align 4
  %11 = alloca i32, align 4
  store ptr %0, ptr %4, align 8, !tbaa !44
  store ptr %1, ptr %5, align 8, !tbaa !3
  call void @llvm.lifetime.start.p0(i64 8, ptr %6) #8
  %12 = load ptr, ptr %5, align 8, !tbaa !3
  %13 = getelementptr inbounds nuw %struct.ossl_ml_kem_key_st, ptr %12, i32 0, i32 9
  %14 = load ptr, ptr %13, align 8, !tbaa !20
  store ptr %14, ptr %6, align 8, !tbaa !40
  call void @llvm.lifetime.start.p0(i64 34, ptr %7) #8
  call void @llvm.lifetime.start.p0(i64 4, ptr %8) #8
  %15 = load ptr, ptr %5, align 8, !tbaa !3
  %16 = getelementptr inbounds nuw %struct.ossl_ml_kem_key_st, ptr %15, i32 0, i32 0
  %17 = load ptr, ptr %16, align 8, !tbaa !16
  %18 = getelementptr inbounds nuw %struct.ML_KEM_VINFO, ptr %17, i32 0, i32 10
  %19 = load i32, ptr %18, align 8, !tbaa !41
  store i32 %19, ptr %8, align 4, !tbaa !23
  call void @llvm.lifetime.start.p0(i64 4, ptr %9) #8
  call void @llvm.lifetime.start.p0(i64 4, ptr %10) #8
  %20 = getelementptr inbounds [34 x i8], ptr %7, i64 0, i64 0
  %21 = load ptr, ptr %5, align 8, !tbaa !3
  %22 = getelementptr inbounds nuw %struct.ossl_ml_kem_key_st, ptr %21, i32 0, i32 6
  %23 = load ptr, ptr %22, align 8, !tbaa !36
  call void @llvm.memcpy.p0.p0.i64(ptr align 16 %20, ptr align 1 %23, i64 32, i1 false)
  store i32 0, ptr %9, align 4, !tbaa !23
  br label %24

24:                                               ; preds = %63, %2
  %25 = load i32, ptr %9, align 4, !tbaa !23
  %26 = load i32, ptr %8, align 4, !tbaa !23
  %27 = icmp slt i32 %25, %26
  br i1 %27, label %28, label %66

28:                                               ; preds = %24
  store i32 0, ptr %10, align 4, !tbaa !23
  br label %29

29:                                               ; preds = %59, %28
  %30 = load i32, ptr %10, align 4, !tbaa !23
  %31 = load i32, ptr %8, align 4, !tbaa !23
  %32 = icmp slt i32 %30, %31
  br i1 %32, label %33, label %62

33:                                               ; preds = %29
  %34 = load i32, ptr %9, align 4, !tbaa !23
  %35 = trunc i32 %34 to i8
  %36 = getelementptr inbounds [34 x i8], ptr %7, i64 0, i64 32
  store i8 %35, ptr %36, align 16, !tbaa !48
  %37 = load i32, ptr %10, align 4, !tbaa !23
  %38 = trunc i32 %37 to i8
  %39 = getelementptr inbounds [34 x i8], ptr %7, i64 0, i64 33
  store i8 %38, ptr %39, align 1, !tbaa !48
  %40 = load ptr, ptr %4, align 8, !tbaa !44
  %41 = load ptr, ptr %5, align 8, !tbaa !3
  %42 = getelementptr inbounds nuw %struct.ossl_ml_kem_key_st, ptr %41, i32 0, i32 2
  %43 = load ptr, ptr %42, align 8, !tbaa !30
  %44 = call i32 @EVP_DigestInit_ex(ptr noundef %40, ptr noundef %43, ptr noundef null)
  %45 = icmp ne i32 %44, 0
  br i1 %45, label %46, label %57

46:                                               ; preds = %33
  %47 = load ptr, ptr %4, align 8, !tbaa !44
  %48 = getelementptr inbounds [34 x i8], ptr %7, i64 0, i64 0
  %49 = call i32 @EVP_DigestUpdate(ptr noundef %47, ptr noundef %48, i64 noundef 34)
  %50 = icmp ne i32 %49, 0
  br i1 %50, label %51, label %57

51:                                               ; preds = %46
  %52 = load ptr, ptr %6, align 8, !tbaa !40
  %53 = getelementptr inbounds nuw %struct.ossl_ml_kem_scalar_st, ptr %52, i32 1
  store ptr %53, ptr %6, align 8, !tbaa !40
  %54 = load ptr, ptr %4, align 8, !tbaa !44
  %55 = call i32 @sample_scalar(ptr noundef %52, ptr noundef %54)
  %56 = icmp ne i32 %55, 0
  br i1 %56, label %58, label %57

57:                                               ; preds = %51, %46, %33
  store i32 0, ptr %3, align 4
  store i32 1, ptr %11, align 4
  br label %67

58:                                               ; preds = %51
  br label %59

59:                                               ; preds = %58
  %60 = load i32, ptr %10, align 4, !tbaa !23
  %61 = add nsw i32 %60, 1
  store i32 %61, ptr %10, align 4, !tbaa !23
  br label %29, !llvm.loop !59

62:                                               ; preds = %29
  br label %63

63:                                               ; preds = %62
  %64 = load i32, ptr %9, align 4, !tbaa !23
  %65 = add nsw i32 %64, 1
  store i32 %65, ptr %9, align 4, !tbaa !23
  br label %24, !llvm.loop !60

66:                                               ; preds = %24
  store i32 1, ptr %3, align 4
  store i32 1, ptr %11, align 4
  br label %67

67:                                               ; preds = %66, %57
  call void @llvm.lifetime.end.p0(i64 4, ptr %10) #8
  call void @llvm.lifetime.end.p0(i64 4, ptr %9) #8
  call void @llvm.lifetime.end.p0(i64 4, ptr %8) #8
  call void @llvm.lifetime.end.p0(i64 34, ptr %7) #8
  call void @llvm.lifetime.end.p0(i64 8, ptr %6) #8
  %68 = load i32, ptr %3, align 4
  ret i32 %68
}