; Function Attrs: nounwind uwtable
define internal fastcc range(i32 0, 2) i32 @matrix_expand(ptr noundef nonnull %0, ptr noundef nonnull readonly captures(none) %1) unnamed_addr #0 {
  %3 = alloca [168 x i8], align 16
  %4 = alloca [34 x i8], align 16
  %5 = getelementptr inbounds nuw i8, ptr %1, i64 72
  %6 = load ptr, ptr %5, align 8, !tbaa !30
  call void @llvm.lifetime.start.p0(i64 34, ptr nonnull %4) #13
  %7 = load ptr, ptr %1, align 8, !tbaa !14
  %8 = getelementptr inbounds nuw i8, ptr %7, i64 72
  %9 = load i32, ptr %8, align 8, !tbaa !29
  %10 = getelementptr inbounds nuw i8, ptr %1, i64 48
  %11 = load ptr, ptr %10, align 8, !tbaa !31
  call void @llvm.memcpy.p0.p0.i64(ptr noundef nonnull align 16 dereferenceable(32) %4, ptr noundef nonnull align 1 dereferenceable(32) %11, i64 32, i1 false)
  %12 = icmp sgt i32 %9, 0
  br i1 %12, label %.preheader.lr.ph, label %.loopexit25

.preheader.lr.ph:                                 ; preds = %2
  %13 = getelementptr inbounds nuw i8, ptr %4, i64 32
  %14 = getelementptr inbounds nuw i8, ptr %4, i64 33
  %15 = getelementptr inbounds nuw i8, ptr %1, i64 16
  br label %.preheader.us

.preheader.us:                                    ; preds = %._crit_edge.us, %.preheader.lr.ph
  %.01632.us = phi i32 [ 0, %.preheader.lr.ph ], [ %55, %._crit_edge.us ]
  %.01831.us = phi ptr [ %6, %.preheader.lr.ph ], [ %53, %._crit_edge.us ]
  %16 = trunc i32 %.01632.us to i8
  br label %17

17:                                               ; preds = %.preheader.us, %.loopexit.us
  %.030.us = phi i32 [ 0, %.preheader.us ], [ %54, %.loopexit.us ]
  %.129.us = phi ptr [ %.01831.us, %.preheader.us ], [ %53, %.loopexit.us ]
  store i8 %16, ptr %13, align 16, !tbaa !41
  %18 = trunc i32 %.030.us to i8
  store i8 %18, ptr %14, align 1, !tbaa !41
  %19 = load ptr, ptr %15, align 8, !tbaa !21
  %20 = call i32 @EVP_DigestInit_ex(ptr noundef nonnull %0, ptr noundef %19, ptr noundef null) #13
  %.not.us = icmp eq i32 %20, 0
  br i1 %.not.us, label %.loopexit25, label %21

21:                                               ; preds = %17
  %22 = call i32 @EVP_DigestUpdate(ptr noundef nonnull %0, ptr noundef nonnull %4, i64 noundef 34) #13
  %.not20.us = icmp eq i32 %22, 0
  br i1 %.not20.us, label %.loopexit25, label %23

23:                                               ; preds = %21
  call void @llvm.lifetime.start.p0(i64 168, ptr nonnull %3) #13
  br label %24

24:                                               ; preds = %51, %23
  %.022.idx.i.us = phi i64 [ 0, %23 ], [ %.4.idx.i.us, %51 ]
  %25 = call i32 @EVP_DigestSqueeze(ptr noundef nonnull %0, ptr noundef nonnull %3, i64 noundef 168) #13
  %.not.i.us = icmp eq i32 %25, 0
  br i1 %.not.i.us, label %sample_scalar.exit, label %.preheader.i.us

.preheader.i.us:                                  ; preds = %24, %49
  %.023.idx.i.us = phi i64 [ %.023.add.i.us, %49 ], [ 0, %24 ]
  %.1.idx.i.us = phi i64 [ %.3.idx.i.us, %49 ], [ %.022.idx.i.us, %24 ]
  %.023.ptr.i.us = getelementptr inbounds nuw i8, ptr %3, i64 %.023.idx.i.us
  %.1.ptr.i.us = getelementptr inbounds nuw i8, ptr %.129.us, i64 %.1.idx.i.us
  %26 = getelementptr inbounds nuw i8, ptr %.023.ptr.i.us, i64 2
  %.023.add.i.us = add nuw nsw i64 %.023.idx.i.us, 3
  %27 = load i8, ptr %26, align 1, !tbaa !41
  %.not26.i.us = icmp slt i64 %.1.idx.i.us, 512
  br i1 %.not26.i.us, label %28, label %.loopexit.us

28:                                               ; preds = %.preheader.i.us
  %29 = getelementptr inbounds nuw i8, ptr %.023.ptr.i.us, i64 1
  %30 = load i8, ptr %29, align 1, !tbaa !41
  %31 = load i8, ptr %.023.ptr.i.us, align 1, !tbaa !41
  %32 = zext i8 %30 to i32
  %33 = shl nuw nsw i32 %32, 8
  %34 = and i32 %33, 3840
  %35 = zext i8 %31 to i32
  %36 = or disjoint i32 %34, %35
  %37 = icmp samesign ult i32 %36, 3329
  br i1 %37, label %38, label %40

38:                                               ; preds = %28
  %39 = trunc nuw nsw i32 %36 to i16
  %.1.add.i.us = add nuw nsw i64 %.1.idx.i.us, 2
  store i16 %39, ptr %.1.ptr.i.us, align 2, !tbaa !36
  br label %40

40:                                               ; preds = %38, %28
  %.2.idx.i.us = phi i64 [ %.1.add.i.us, %38 ], [ %.1.idx.i.us, %28 ]
  %.2.ptr.i.us = getelementptr inbounds nuw i8, ptr %.129.us, i64 %.2.idx.i.us
  %.not28.i.us = icmp samesign ult i64 %.2.idx.i.us, 512
  br i1 %.not28.i.us, label %41, label %51

41:                                               ; preds = %40
  %42 = zext i8 %27 to i32
  %43 = shl nuw nsw i32 %42, 4
  %44 = lshr i32 %32, 4
  %45 = or disjoint i32 %44, %43
  %46 = icmp samesign ult i32 %45, 3329
  br i1 %46, label %47, label %49

47:                                               ; preds = %41
  %48 = trunc nuw nsw i32 %45 to i16
  %.2.add.i.us = add nuw nsw i64 %.2.idx.i.us, 2
  store i16 %48, ptr %.2.ptr.i.us, align 2, !tbaa !36
  br label %49

49:                                               ; preds = %47, %41
  %.3.idx.i.us = phi i64 [ %.2.add.i.us, %47 ], [ %.2.idx.i.us, %41 ]
  %50 = icmp samesign ult i64 %.023.idx.i.us, 165
  br i1 %50, label %.preheader.i.us, label %51, !llvm.loop !73

51:                                               ; preds = %49, %40
  %.4.idx.i.us = phi i64 [ %.2.idx.i.us, %40 ], [ %.3.idx.i.us, %49 ]
  %52 = icmp samesign ult i64 %.4.idx.i.us, 512
  br i1 %52, label %24, label %.loopexit.us, !llvm.loop !74

.loopexit.us:                                     ; preds = %51, %.preheader.i.us
  call void @llvm.lifetime.end.p0(i64 168, ptr nonnull %3) #13
  %53 = getelementptr inbounds nuw i8, ptr %.129.us, i64 512
  %54 = add nuw nsw i32 %.030.us, 1
  %exitcond.not = icmp eq i32 %54, %9
  br i1 %exitcond.not, label %._crit_edge.us, label %17, !llvm.loop !75

._crit_edge.us:                                   ; preds = %.loopexit.us
  %55 = add nuw nsw i32 %.01632.us, 1
  %exitcond35.not = icmp eq i32 %55, %9
  br i1 %exitcond35.not, label %.loopexit25, label %.preheader.us, !llvm.loop !76

sample_scalar.exit:                               ; preds = %24
  call void @llvm.lifetime.end.p0(i64 168, ptr nonnull %3) #13
  br label %.loopexit25

.loopexit25:                                      ; preds = %._crit_edge.us, %21, %17, %2, %sample_scalar.exit
  %.017 = phi i32 [ 0, %sample_scalar.exit ], [ 1, %2 ], [ 0, %17 ], [ 0, %21 ], [ 1, %._crit_edge.us ]
  call void @llvm.lifetime.end.p0(i64 34, ptr nonnull %4) #13
  ret i32 %.017
}